target datalayout = "e-m:e-p270:32:32-p271:32:32-p272:64:64-i64:64-i128:128-f80:128-n8:16:32:64-S128"
target triple = "x86_64-pc-linux-gnu"

; Function Attrs: mustprogress noinline nounwind uwtable
define hidden void @_ZN7testing8internal21StackLowerThanAddressEPKvPb(ptr noundef %0, ptr noundef %1) #21 {
  %3 = alloca ptr, align 8
  %4 = alloca ptr, align 8
  %5 = alloca i32, align 4
  store ptr %0, ptr %3, align 8
  store ptr %1, ptr %4, align 8
  call void @llvm.lifetime.start.p0(i64 4, ptr %5) #3
  %6 = load ptr, ptr %3, align 8
  %7 = icmp ult ptr %5, %6
  %8 = load ptr, ptr %4, align 8
  %9 = zext i1 %7 to i8
  store i8 %9, ptr %8, align 1
  call void @llvm.lifetime.end.p0(i64 4, ptr %5) #3
  ret void
}