; Function Attrs: mustprogress nofree noinline norecurse nosync nounwind willreturn memory(argmem: write) uwtable
define hidden void @_ZN7testing8internal21StackLowerThanAddressEPKvPb(ptr noundef readnone %0, ptr noundef writeonly captures(none) initializes((0, 1)) %1) local_unnamed_addr #9 {
  %3 = alloca i32, align 4
  call void @llvm.lifetime.start.p0(i64 4, ptr nonnull %3) #53
  %4 = icmp ult ptr %3, %0
  %5 = zext i1 %4 to i8
  store i8 %5, ptr %1, align 1
  call void @llvm.lifetime.end.p0(i64 4, ptr nonnull %3) #53
  ret void
}